; Function Attrs: mustprogress uwtable
define void @_ZNK19OpenColorIO_v2_5dev13GpuShaderDesc5cloneEv(ptr dead_on_unwind noalias writable writeonly sret(%"class.std::shared_ptr.9") align 8 captures(none) %0, ptr noundef nonnull readonly align 8 captures(none) dereferenceable(16) %1) unnamed_addr #0 align 2 personality ptr @__gxx_personality_v0 {
  %3 = alloca %"class.std::shared_ptr.6", align 8
  call void @llvm.lifetime.start.p0(i64 16, ptr nonnull %3) #26
  call void @_ZN19OpenColorIO_v2_5dev20GenericGpuShaderDesc6CreateEv(ptr dead_on_unwind nonnull writable sret(%"class.std::shared_ptr.6") align 8 %3)
  %4 = getelementptr inbounds nuw i8, ptr %1, i64 8
  %5 = load ptr, ptr %4, align 8, !tbaa !6
  %6 = load ptr, ptr %3, align 8, !tbaa !98
  %7 = getelementptr inbounds nuw i8, ptr %6, i64 8
  %8 = load ptr, ptr %7, align 8, !tbaa !6
  %9 = invoke noundef nonnull align 8 dereferenceable(472) ptr @_ZN19OpenColorIO_v2_5dev16GpuShaderCreator4ImplaSERKS1_(ptr noundef nonnull align 8 dereferenceable(472) %8, ptr noundef nonnull align 8 dereferenceable(472) %5)
          to label %10 unwind label %47

10:                                               ; preds = %2
  call void @llvm.experimental.noalias.scope.decl(metadata !101)
  call void @llvm.experimental.noalias.scope.decl(metadata !104)
  %11 = load ptr, ptr %3, align 8, !tbaa !98, !noalias !107
  %.not.not.i.i = icmp eq ptr %11, null
  br i1 %.not.not.i.i, label %_ZNSt10shared_ptrIN19OpenColorIO_v2_5dev16GpuShaderCreatorEEC2INS0_13GpuShaderDescEEERKS_IT_EPS1_.exit.i.i, label %12

12:                                               ; preds = %10
  store ptr %11, ptr %0, align 8, !tbaa !108, !alias.scope !107
  %13 = getelementptr inbounds nuw i8, ptr %0, i64 8
  %14 = getelementptr inbounds nuw i8, ptr %3, i64 8
  %15 = load ptr, ptr %14, align 8, !tbaa !41, !noalias !107
  store ptr %15, ptr %13, align 8, !tbaa !41, !alias.scope !107
  %.not.i.i.i.i.i = icmp eq ptr %15, null
  br i1 %.not.i.i.i.i.i, label %_ZN19OpenColorIO_v2_5dev14DynamicPtrCastINS_16GpuShaderCreatorENS_13GpuShaderDescEEESt10shared_ptrIT_ERKS3_IT0_E.exit, label %16

16:                                               ; preds = %12
  %17 = getelementptr inbounds nuw i8, ptr %15, i64 8
  %18 = load i8, ptr @__libc_single_threaded, align 1, !tbaa !17, !noalias !107
  %.not.i.i.i.i.i.i = icmp eq i8 %18, 0
  br i1 %.not.i.i.i.i.i.i, label %22, label %19

19:                                               ; preds = %16
  %20 = load i32, ptr %17, align 4, !tbaa !47, !noalias !107
  %21 = add nsw i32 %20, 1
  store i32 %21, ptr %17, align 4, !tbaa !47, !noalias !107
  br label %_ZN19OpenColorIO_v2_5dev14DynamicPtrCastINS_16GpuShaderCreatorENS_13GpuShaderDescEEESt10shared_ptrIT_ERKS3_IT0_E.exit

22:                                               ; preds = %16
  %23 = atomicrmw volatile add ptr %17, i32 1 acq_rel, align 4, !noalias !107
  br label %_ZN19OpenColorIO_v2_5dev14DynamicPtrCastINS_16GpuShaderCreatorENS_13GpuShaderDescEEESt10shared_ptrIT_ERKS3_IT0_E.exit

_ZNSt10shared_ptrIN19OpenColorIO_v2_5dev16GpuShaderCreatorEEC2INS0_13GpuShaderDescEEERKS_IT_EPS1_.exit.i.i: ; preds = %10
  call void @llvm.memset.p0.i64(ptr noundef nonnull align 8 dereferenceable(16) %0, i8 0, i64 16, i1 false), !alias.scope !107
  br label %_ZN19OpenColorIO_v2_5dev14DynamicPtrCastINS_16GpuShaderCreatorENS_13GpuShaderDescEEESt10shared_ptrIT_ERKS3_IT0_E.exit

_ZN19OpenColorIO_v2_5dev14DynamicPtrCastINS_16GpuShaderCreatorENS_13GpuShaderDescEEESt10shared_ptrIT_ERKS3_IT0_E.exit: ; preds = %12, %19, %22, %_ZNSt10shared_ptrIN19OpenColorIO_v2_5dev16GpuShaderCreatorEEC2INS0_13GpuShaderDescEEERKS_IT_EPS1_.exit.i.i
  %24 = getelementptr inbounds nuw i8, ptr %3, i64 8
  %25 = load ptr, ptr %24, align 8, !tbaa !41
  %.not.i.i = icmp eq ptr %25, null
  br i1 %.not.i.i, label %_ZNSt12__shared_ptrIN19OpenColorIO_v2_5dev13GpuShaderDescELN9__gnu_cxx12_Lock_policyE2EED2Ev.exit, label %26

26:                                               ; preds = %_ZN19OpenColorIO_v2_5dev14DynamicPtrCastINS_16GpuShaderCreatorENS_13GpuShaderDescEEESt10shared_ptrIT_ERKS3_IT0_E.exit
  %27 = getelementptr inbounds nuw i8, ptr %25, i64 8
  %28 = load atomic i64, ptr %27 acquire, align 8
  %29 = icmp eq i64 %28, 4294967297
  %30 = trunc i64 %28 to i32
  br i1 %29, label %31, label %39

31:                                               ; preds = %26
  store i32 0, ptr %27, align 8, !tbaa !44
  %32 = getelementptr inbounds nuw i8, ptr %25, i64 12
  store i32 0, ptr %32, align 4, !tbaa !46
  %33 = load ptr, ptr %25, align 8, !tbaa !3
  %34 = getelementptr inbounds nuw i8, ptr %33, i64 16
  %35 = load ptr, ptr %34, align 8
  call void %35(ptr noundef nonnull align 8 dereferenceable(16) %25) #26
  %36 = load ptr, ptr %25, align 8, !tbaa !3
  %37 = getelementptr inbounds nuw i8, ptr %36, i64 24
  %38 = load ptr, ptr %37, align 8
  call void %38(ptr noundef nonnull align 8 dereferenceable(16) %25) #26
  br label %_ZNSt12__shared_ptrIN19OpenColorIO_v2_5dev13GpuShaderDescELN9__gnu_cxx12_Lock_policyE2EED2Ev.exit

39:                                               ; preds = %26
  %40 = load i8, ptr @__libc_single_threaded, align 1, !tbaa !17
  %.not.i.i.i = icmp eq i8 %40, 0
  br i1 %.not.i.i.i, label %43, label %41

41:                                               ; preds = %39
  %42 = add nsw i32 %30, -1
  store i32 %42, ptr %27, align 4, !tbaa !47
  br label %_ZN9__gnu_cxx27__exchange_and_add_dispatchEPii.exit.i.i.i

43:                                               ; preds = %39
  %44 = atomicrmw volatile add ptr %27, i32 -1 acq_rel, align 4
  br label %_ZN9__gnu_cxx27__exchange_and_add_dispatchEPii.exit.i.i.i

_ZN9__gnu_cxx27__exchange_and_add_dispatchEPii.exit.i.i.i: ; preds = %43, %41
  %.0.i.i.i.i = phi i32 [ %30, %41 ], [ %44, %43 ]
  %45 = icmp eq i32 %.0.i.i.i.i, 1
  br i1 %45, label %46, label %_ZNSt12__shared_ptrIN19OpenColorIO_v2_5dev13GpuShaderDescELN9__gnu_cxx12_Lock_policyE2EED2Ev.exit, !prof !48

46:                                               ; preds = %_ZN9__gnu_cxx27__exchange_and_add_dispatchEPii.exit.i.i.i
  call void @_ZNSt16_Sp_counted_baseILN9__gnu_cxx12_Lock_policyE2EE24_M_release_last_use_coldEv(ptr noundef nonnull align 8 dereferenceable(16) %25) #26
  br label %_ZNSt12__shared_ptrIN19OpenColorIO_v2_5dev13GpuShaderDescELN9__gnu_cxx12_Lock_policyE2EED2Ev.exit

_ZNSt12__shared_ptrIN19OpenColorIO_v2_5dev13GpuShaderDescELN9__gnu_cxx12_Lock_policyE2EED2Ev.exit: ; preds = %_ZN19OpenColorIO_v2_5dev14DynamicPtrCastINS_16GpuShaderCreatorENS_13GpuShaderDescEEESt10shared_ptrIT_ERKS3_IT0_E.exit, %31, %_ZN9__gnu_cxx27__exchange_and_add_dispatchEPii.exit.i.i.i, %46
  call void @llvm.lifetime.end.p0(i64 16, ptr nonnull %3) #26
  ret void

47:                                               ; preds = %2
  %48 = landingpad { ptr, i32 }
          cleanup
  call void @_ZNSt12__shared_ptrIN19OpenColorIO_v2_5dev13GpuShaderDescELN9__gnu_cxx12_Lock_policyE2EED2Ev(ptr noundef nonnull align 8 dereferenceable(16) %3) #26
  call void @llvm.lifetime.end.p0(i64 16, ptr nonnull %3) #26
  resume { ptr, i32 } %48
}